#include <math.h>
#include <stdio.h>
#include <stdlib.h>
#include <string.h>

int sum=1;
void f(int i,int j)
{
	int k;
	if(i==1)
	    sum++;
	else
	{
		for(k=j;k<=i;k++)
		{
			if(i%k==0)
				f(i/k,k);
		}
	} 
}
int main(void)
{
	int i,j,k;
	int n;
	int a;
	scanf("%d",&n);
	while(n--)
	{
		sum=1;
		scanf("%d",&a);
		for(i=2;i*i<=a;i++)
		{
			if(a%i==0)
			{
				f(a/i,i);
			}
		}
		printf("%d\n",sum);
	}
	return 0;
}