; ModuleID = '1/2047.c'
source_filename = "1/2047.c"
target datalayout = "e-m:e-p270:32:32-p271:32:32-p272:64:64-i64:64-f80:128-n8:16:32:64-S128"
target triple = "x86_64-pc-linux-gnu"

@sum = dso_local global i32 1, align 4
@.str = private unnamed_addr constant [3 x i8] c"%d\00", align 1
@.str.1 = private unnamed_addr constant [4 x i8] c"%d\0A\00", align 1

; Function Attrs: noinline nounwind uwtable
define dso_local void @f(i32 %0, i32 %1) #0 {
  %3 = alloca i32, align 4
  %4 = alloca i32, align 4
  %5 = alloca i32, align 4
  store i32 %0, i32* %3, align 4
  store i32 %1, i32* %4, align 4
  %6 = load i32, i32* %3, align 4
  %7 = icmp eq i32 %6, 1
  br i1 %7, label %8, label %11

8:                                                ; preds = %2
  %9 = load i32, i32* @sum, align 4
  %10 = add nsw i32 %9, 1
  store i32 %10, i32* @sum, align 4
  br label %32

11:                                               ; preds = %2
  %12 = load i32, i32* %4, align 4
  store i32 %12, i32* %5, align 4
  br label %13

13:                                               ; preds = %28, %11
  %14 = load i32, i32* %5, align 4
  %15 = load i32, i32* %3, align 4
  %16 = icmp sle i32 %14, %15
  br i1 %16, label %17, label %31

17:                                               ; preds = %13
  %18 = load i32, i32* %3, align 4
  %19 = load i32, i32* %5, align 4
  %20 = srem i32 %18, %19
  %21 = icmp eq i32 %20, 0
  br i1 %21, label %22, label %27

22:                                               ; preds = %17
  %23 = load i32, i32* %3, align 4
  %24 = load i32, i32* %5, align 4
  %25 = sdiv i32 %23, %24
  %26 = load i32, i32* %5, align 4
  call void @f(i32 %25, i32 %26)
  br label %27

27:                                               ; preds = %22, %17
  br label %28

28:                                               ; preds = %27
  %29 = load i32, i32* %5, align 4
  %30 = add nsw i32 %29, 1
  store i32 %30, i32* %5, align 4
  br label %13

31:                                               ; preds = %13
  br label %32

32:                                               ; preds = %31, %8
  ret void
}

; Function Attrs: noinline nounwind uwtable
define dso_local i32 @main() #0 {
  %1 = alloca i32, align 4
  %2 = alloca i32, align 4
  %3 = alloca i32, align 4
  %4 = alloca i32, align 4
  %5 = alloca i32, align 4
  %6 = alloca i32, align 4
  store i32 0, i32* %1, align 4
  %7 = call i32 (i8*, ...) @__isoc99_scanf(i8* getelementptr inbounds ([3 x i8], [3 x i8]* @.str, i64 0, i64 0), i32* %5)
  br label %8

8:                                                ; preds = %34, %0
  %9 = load i32, i32* %5, align 4
  %10 = add nsw i32 %9, -1
  store i32 %10, i32* %5, align 4
  %11 = icmp ne i32 %9, 0
  br i1 %11, label %12, label %37

12:                                               ; preds = %8
  store i32 1, i32* @sum, align 4
  %13 = call i32 (i8*, ...) @__isoc99_scanf(i8* getelementptr inbounds ([3 x i8], [3 x i8]* @.str, i64 0, i64 0), i32* %6)
  store i32 2, i32* %2, align 4
  br label %14

14:                                               ; preds = %31, %12
  %15 = load i32, i32* %2, align 4
  %16 = load i32, i32* %2, align 4
  %17 = mul nsw i32 %15, %16
  %18 = load i32, i32* %6, align 4
  %19 = icmp sle i32 %17, %18
  br i1 %19, label %20, label %34

20:                                               ; preds = %14
  %21 = load i32, i32* %6, align 4
  %22 = load i32, i32* %2, align 4
  %23 = srem i32 %21, %22
  %24 = icmp eq i32 %23, 0
  br i1 %24, label %25, label %30

25:                                               ; preds = %20
  %26 = load i32, i32* %6, align 4
  %27 = load i32, i32* %2, align 4
  %28 = sdiv i32 %26, %27
  %29 = load i32, i32* %2, align 4
  call void @f(i32 %28, i32 %29)
  br label %30

30:                                               ; preds = %25, %20
  br label %31

31:                                               ; preds = %30
  %32 = load i32, i32* %2, align 4
  %33 = add nsw i32 %32, 1
  store i32 %33, i32* %2, align 4
  br label %14

34:                                               ; preds = %14
  %35 = load i32, i32* @sum, align 4
  %36 = call i32 (i8*, ...) @printf(i8* getelementptr inbounds ([4 x i8], [4 x i8]* @.str.1, i64 0, i64 0), i32 %35)
  br label %8

37:                                               ; preds = %8
  ret i32 0
}

declare dso_local i32 @__isoc99_scanf(i8*, ...) #1

declare dso_local i32 @printf(i8*, ...) #1


!llvm.module.flags = !{!0}
!llvm.ident = !{!1}

!0 = !{i32 1, !"wchar_size", i32 4}
!1 = !{!"clang version 10.0.0-4ubuntu1 "}
